target datalayout = "e-m:e-p270:32:32-p271:32:32-p272:64:64-i64:64-i128:128-f80:128-n8:16:32:64-S128"
target triple = "x86_64-pc-linux-gnu"

%class.ZPhysicalMemory = type { %class.GrowableArrayCHeap }
%class.GrowableArrayCHeap = type { %class.GrowableArrayWithAllocator }
%class.GrowableArrayWithAllocator = type { %class.GrowableArrayView }
%class.GrowableArrayView = type { %class.GrowableArrayBase, ptr }
%class.GrowableArrayBase = type { i32, i32 }
%class.ZPhysicalMemorySegment = type <{ i64, i64, i8, [7 x i8] }>

; Function Attrs: mustprogress nounwind uwtable
define linkonce_odr hidden noundef i64 @_Z14to_zoffset_end7zoffsetm(i64 noundef %0, i64 noundef %1) #1 comdat {
  %3 = alloca i64, align 8
  %4 = alloca i64, align 8
  %5 = alloca i64, align 8
  store i64 %0, ptr %3, align 8
  store i64 %1, ptr %4, align 8
  %6 = load i64, ptr %3, align 8
  %7 = call noundef i64 @_Z6untype7zoffset(i64 noundef %6)
  %8 = load i64, ptr %4, align 8
  %9 = add i64 %7, %8
  store i64 %9, ptr %5, align 8
  %10 = load i64, ptr %5, align 8
  ret i64 %10
}

; Function Attrs: mustprogress nounwind uwtable
define linkonce_odr hidden noundef i64 @_Z6untype11zoffset_end(i64 noundef %0) #1 comdat {
  %2 = alloca i64, align 8
  %3 = alloca i64, align 8
  store i64 %0, ptr %2, align 8
  %4 = load i64, ptr %2, align 8
  store i64 %4, ptr %3, align 8
  %5 = load i64, ptr %3, align 8
  ret i64 %5
}

; Function Attrs: mustprogress nounwind uwtable
define linkonce_odr hidden void @_ZN17GrowableArrayViewI22ZPhysicalMemorySegmentE6at_putEiRKS0_(ptr noundef nonnull align 8 dereferenceable(16) %0, i32 noundef %1, ptr noundef nonnull align 8 dereferenceable(17) %2) #1 comdat align 2 {
  %4 = alloca ptr, align 8
  %5 = alloca i32, align 4
  %6 = alloca ptr, align 8
  store ptr %0, ptr %4, align 8
  store i32 %1, ptr %5, align 4
  store ptr %2, ptr %6, align 8
  %7 = load ptr, ptr %4, align 8
  %8 = load ptr, ptr %6, align 8
  %9 = getelementptr inbounds %class.GrowableArrayView, ptr %7, i32 0, i32 1
  %10 = load ptr, ptr %9, align 8
  %11 = load i32, ptr %5, align 4
  %12 = sext i32 %11 to i64
  %13 = getelementptr inbounds %class.ZPhysicalMemorySegment, ptr %10, i64 %12
  call void @llvm.memcpy.p0.p0.i64(ptr align 8 %13, ptr align 8 %8, i64 17, i1 false)
  ret void
}

; Function Attrs: mustprogress nounwind uwtable
define linkonce_odr hidden void @_ZN22ZPhysicalMemorySegmentC2E7zoffsetmb(ptr noundef nonnull align 8 dereferenceable(17) %0, i64 noundef %1, i64 noundef %2, i1 noundef zeroext %3) unnamed_addr #1 comdat align 2 {
  %5 = alloca ptr, align 8
  %6 = alloca i64, align 8
  %7 = alloca i64, align 8
  %8 = alloca i8, align 1
  store ptr %0, ptr %5, align 8
  store i64 %1, ptr %6, align 8
  store i64 %2, ptr %7, align 8
  %9 = zext i1 %3 to i8
  store i8 %9, ptr %8, align 1
  %10 = load ptr, ptr %5, align 8
  %11 = getelementptr inbounds %class.ZPhysicalMemorySegment, ptr %10, i32 0, i32 0
  %12 = load i64, ptr %6, align 8
  store i64 %12, ptr %11, align 8
  %13 = getelementptr inbounds %class.ZPhysicalMemorySegment, ptr %10, i32 0, i32 1
  %14 = load i64, ptr %6, align 8
  %15 = load i64, ptr %7, align 8
  %16 = call noundef i64 @_Z14to_zoffset_end7zoffsetm(i64 noundef %14, i64 noundef %15)
  store i64 %16, ptr %13, align 8
  %17 = getelementptr inbounds %class.ZPhysicalMemorySegment, ptr %10, i32 0, i32 2
  %18 = load i8, ptr %8, align 1
  %19 = trunc i8 %18 to i1
  %20 = zext i1 %19 to i8
  store i8 %20, ptr %17, align 8
  ret void
}

; Function Attrs: mustprogress nounwind uwtable
define linkonce_odr hidden noundef i64 @_Z10to_zoffsetm(i64 noundef %0) #1 comdat {
  %2 = alloca i64, align 8
  store i64 %0, ptr %2, align 8
  %3 = load i64, ptr %2, align 8
  ret i64 %3
}

; Function Attrs: mustprogress nounwind uwtable
define linkonce_odr hidden noundef i64 @_Z6untype7zoffset(i64 noundef %0) #1 comdat {
  %2 = alloca i64, align 8
  %3 = alloca i64, align 8
  store i64 %0, ptr %2, align 8
  %4 = load i64, ptr %2, align 8
  store i64 %4, ptr %3, align 8
  %5 = load i64, ptr %3, align 8
  ret i64 %5
}

; Function Attrs: mustprogress nounwind uwtable
define linkonce_odr hidden noundef i64 @_Zmi11zoffset_end7zoffset(i64 noundef %0, i64 noundef %1) #1 comdat {
  %3 = alloca i64, align 8
  %4 = alloca i64, align 8
  store i64 %0, ptr %3, align 8
  store i64 %1, ptr %4, align 8
  %5 = load i64, ptr %3, align 8
  %6 = call noundef i64 @_Z6untype11zoffset_end(i64 noundef %5)
  %7 = load i64, ptr %4, align 8
  %8 = call noundef i64 @_Z6untype7zoffset(i64 noundef %7)
  %9 = sub i64 %6, %8
  ret i64 %9
}

; Function Attrs: mustprogress nounwind uwtable
define hidden void @_ZN15ZPhysicalMemory15replace_segmentEi7zoffsetmb(ptr noundef nonnull align 8 dereferenceable(16) %0, i32 noundef %1, i64 noundef %2, i64 noundef %3, i1 noundef zeroext %4) #1 align 2 {
  %6 = alloca ptr, align 8
  %7 = alloca i32, align 4
  %8 = alloca i64, align 8
  %9 = alloca i64, align 8
  %10 = alloca i8, align 1
  %11 = alloca %class.ZPhysicalMemorySegment, align 8
  store ptr %0, ptr %6, align 8
  store i32 %1, ptr %7, align 4
  store i64 %2, ptr %8, align 8
  store i64 %3, ptr %9, align 8
  %12 = zext i1 %4 to i8
  store i8 %12, ptr %10, align 1
  %13 = load ptr, ptr %6, align 8
  %14 = getelementptr inbounds %class.ZPhysicalMemory, ptr %13, i32 0, i32 0
  %15 = load i32, ptr %7, align 4
  %16 = load i64, ptr %8, align 8
  %17 = load i64, ptr %9, align 8
  %18 = load i8, ptr %10, align 1
  %19 = trunc i8 %18 to i1
  call void @_ZN22ZPhysicalMemorySegmentC2E7zoffsetmb(ptr noundef nonnull align 8 dereferenceable(17) %11, i64 noundef %16, i64 noundef %17, i1 noundef zeroext %19)
  call void @_ZN17GrowableArrayViewI22ZPhysicalMemorySegmentE6at_putEiRKS0_(ptr noundef nonnull align 8 dereferenceable(16) %14, i32 noundef %15, ptr noundef nonnull align 8 dereferenceable(17) %11)
  ret void
}

; Function Attrs: mustprogress nounwind uwtable
define hidden void @_ZN15ZPhysicalMemory14insert_segmentEi7zoffsetmb(ptr noundef nonnull align 8 dereferenceable(16) %0, i32 noundef %1, i64 noundef %2, i64 noundef %3, i1 noundef zeroext %4) #1 align 2 {
  %6 = alloca ptr, align 8
  %7 = alloca i32, align 4
  %8 = alloca i64, align 8
  %9 = alloca i64, align 8
  %10 = alloca i8, align 1
  %11 = alloca %class.ZPhysicalMemorySegment, align 8
  store ptr %0, ptr %6, align 8
  store i32 %1, ptr %7, align 4
  store i64 %2, ptr %8, align 8
  store i64 %3, ptr %9, align 8
  %12 = zext i1 %4 to i8
  store i8 %12, ptr %10, align 1
  %13 = load ptr, ptr %6, align 8
  %14 = getelementptr inbounds %class.ZPhysicalMemory, ptr %13, i32 0, i32 0
  %15 = load i32, ptr %7, align 4
  %16 = load i64, ptr %8, align 8
  %17 = load i64, ptr %9, align 8
  %18 = load i8, ptr %10, align 1
  %19 = trunc i8 %18 to i1
  call void @_ZN22ZPhysicalMemorySegmentC2E7zoffsetmb(ptr noundef nonnull align 8 dereferenceable(17) %11, i64 noundef %16, i64 noundef %17, i1 noundef zeroext %19)
  call void @_ZN26GrowableArrayWithAllocatorI22ZPhysicalMemorySegment18GrowableArrayCHeapIS0_L8MEMFLAGS5EEE13insert_beforeEiRKS0_(ptr noundef nonnull align 8 dereferenceable(16) %14, i32 noundef %15, ptr noundef nonnull align 8 dereferenceable(17) %11)
  ret void
}

; Function Attrs: mustprogress nounwind uwtable
define linkonce_odr hidden noundef i64 @_Zpl7zoffsetm(i64 noundef %0, i64 noundef %1) #1 comdat {
  %3 = alloca i64, align 8
  %4 = alloca i64, align 8
  store i64 %0, ptr %3, align 8
  store i64 %1, ptr %4, align 8
  %5 = load i64, ptr %3, align 8
  %6 = call noundef i64 @_Z6untype7zoffset(i64 noundef %5)
  %7 = load i64, ptr %4, align 8
  %8 = add i64 %6, %7
  %9 = call noundef i64 @_Z10to_zoffsetm(i64 noundef %8)
  ret i64 %9
}

; Function Attrs: mustprogress nounwind uwtable
define linkonce_odr hidden noundef i64 @_ZNK22ZPhysicalMemorySegment5startEv(ptr noundef nonnull align 8 dereferenceable(17) %0) #1 comdat align 2 {
  %2 = alloca ptr, align 8
  store ptr %0, ptr %2, align 8
  %3 = load ptr, ptr %2, align 8
  %4 = getelementptr inbounds %class.ZPhysicalMemorySegment, ptr %3, i32 0, i32 0
  %5 = load i64, ptr %4, align 8
  ret i64 %5
}

; Function Attrs: mustprogress nounwind uwtable
define linkonce_odr hidden void @_ZN22ZPhysicalMemorySegment13set_committedEb(ptr noundef nonnull align 8 dereferenceable(17) %0, i1 noundef zeroext %1) #1 comdat align 2 {
  %3 = alloca ptr, align 8
  %4 = alloca i8, align 1
  store ptr %0, ptr %3, align 8
  %5 = zext i1 %1 to i8
  store i8 %5, ptr %4, align 1
  %6 = load ptr, ptr %3, align 8
  %7 = load i8, ptr %4, align 1
  %8 = trunc i8 %7 to i1
  %9 = getelementptr inbounds %class.ZPhysicalMemorySegment, ptr %6, i32 0, i32 2
  %10 = zext i1 %8 to i8
  store i8 %10, ptr %9, align 8
  ret void
}

; Function Attrs: mustprogress nounwind uwtable
define linkonce_odr hidden noundef i64 @_ZNK22ZPhysicalMemorySegment4sizeEv(ptr noundef nonnull align 8 dereferenceable(17) %0) #1 comdat align 2 {
  %2 = alloca ptr, align 8
  store ptr %0, ptr %2, align 8
  %3 = load ptr, ptr %2, align 8
  %4 = getelementptr inbounds %class.ZPhysicalMemorySegment, ptr %3, i32 0, i32 1
  %5 = load i64, ptr %4, align 8
  %6 = getelementptr inbounds %class.ZPhysicalMemorySegment, ptr %3, i32 0, i32 0
  %7 = load i64, ptr %6, align 8
  %8 = call noundef i64 @_Zmi11zoffset_end7zoffset(i64 noundef %5, i64 noundef %7)
  ret i64 %8
}

; Function Attrs: mustprogress nounwind uwtable
define linkonce_odr hidden noundef nonnull align 8 dereferenceable(17) ptr @_ZN17GrowableArrayViewI22ZPhysicalMemorySegmentE2atEi(ptr noundef nonnull align 8 dereferenceable(16) %0, i32 noundef %1) #1 comdat align 2 {
  %3 = alloca ptr, align 8
  %4 = alloca i32, align 4
  store ptr %0, ptr %3, align 8
  store i32 %1, ptr %4, align 4
  %5 = load ptr, ptr %3, align 8
  %6 = getelementptr inbounds %class.GrowableArrayView, ptr %5, i32 0, i32 1
  %7 = load ptr, ptr %6, align 8
  %8 = load i32, ptr %4, align 4
  %9 = sext i32 %8 to i64
  %10 = getelementptr inbounds %class.ZPhysicalMemorySegment, ptr %7, i64 %9
  ret ptr %10
}

; Function Attrs: mustprogress nounwind uwtable
define hidden noundef zeroext i1 @_ZN15ZPhysicalMemory14commit_segmentEim(ptr noundef nonnull align 8 dereferenceable(16) %0, i32 noundef %1, i64 noundef %2) #1 align 2 {
  %4 = alloca i1, align 1
  %5 = alloca ptr, align 8
  %6 = alloca i32, align 4
  %7 = alloca i64, align 8
  store ptr %0, ptr %5, align 8
  store i32 %1, ptr %6, align 4
  store i64 %2, ptr %7, align 8
  %8 = load ptr, ptr %5, align 8
  %9 = load i64, ptr %7, align 8
  %10 = getelementptr inbounds %class.ZPhysicalMemory, ptr %8, i32 0, i32 0
  %11 = load i32, ptr %6, align 4
  %12 = call noundef nonnull align 8 dereferenceable(17) ptr @_ZN17GrowableArrayViewI22ZPhysicalMemorySegmentE2atEi(ptr noundef nonnull align 8 dereferenceable(16) %10, i32 noundef %11)
  %13 = call noundef i64 @_ZNK22ZPhysicalMemorySegment4sizeEv(ptr noundef nonnull align 8 dereferenceable(17) %12)
  %14 = icmp eq i64 %9, %13
  br i1 %14, label %15, label %19

15:                                               ; preds = %3
  %16 = getelementptr inbounds %class.ZPhysicalMemory, ptr %8, i32 0, i32 0
  %17 = load i32, ptr %6, align 4
  %18 = call noundef nonnull align 8 dereferenceable(17) ptr @_ZN17GrowableArrayViewI22ZPhysicalMemorySegmentE2atEi(ptr noundef nonnull align 8 dereferenceable(16) %16, i32 noundef %17)
  call void @_ZN22ZPhysicalMemorySegment13set_committedEb(ptr noundef nonnull align 8 dereferenceable(17) %18, i1 noundef zeroext true)
  store i1 true, ptr %4, align 1
  br label %44

19:                                               ; preds = %3
  %20 = load i64, ptr %7, align 8
  %21 = icmp ugt i64 %20, 0
  br i1 %21, label %22, label %43

22:                                               ; preds = %19
  %23 = load i32, ptr %6, align 4
  %24 = add nsw i32 %23, 1
  %25 = getelementptr inbounds %class.ZPhysicalMemory, ptr %8, i32 0, i32 0
  %26 = load i32, ptr %6, align 4
  %27 = call noundef nonnull align 8 dereferenceable(17) ptr @_ZN17GrowableArrayViewI22ZPhysicalMemorySegmentE2atEi(ptr noundef nonnull align 8 dereferenceable(16) %25, i32 noundef %26)
  %28 = call noundef i64 @_ZNK22ZPhysicalMemorySegment5startEv(ptr noundef nonnull align 8 dereferenceable(17) %27)
  %29 = load i64, ptr %7, align 8
  %30 = call noundef i64 @_Zpl7zoffsetm(i64 noundef %28, i64 noundef %29)
  %31 = getelementptr inbounds %class.ZPhysicalMemory, ptr %8, i32 0, i32 0
  %32 = load i32, ptr %6, align 4
  %33 = call noundef nonnull align 8 dereferenceable(17) ptr @_ZN17GrowableArrayViewI22ZPhysicalMemorySegmentE2atEi(ptr noundef nonnull align 8 dereferenceable(16) %31, i32 noundef %32)
  %34 = call noundef i64 @_ZNK22ZPhysicalMemorySegment4sizeEv(ptr noundef nonnull align 8 dereferenceable(17) %33)
  %35 = load i64, ptr %7, align 8
  %36 = sub i64 %34, %35
  call void @_ZN15ZPhysicalMemory14insert_segmentEi7zoffsetmb(ptr noundef nonnull align 8 dereferenceable(16) %8, i32 noundef %24, i64 noundef %30, i64 noundef %36, i1 noundef zeroext false)
  %37 = load i32, ptr %6, align 4
  %38 = getelementptr inbounds %class.ZPhysicalMemory, ptr %8, i32 0, i32 0
  %39 = load i32, ptr %6, align 4
  %40 = call noundef nonnull align 8 dereferenceable(17) ptr @_ZN17GrowableArrayViewI22ZPhysicalMemorySegmentE2atEi(ptr noundef nonnull align 8 dereferenceable(16) %38, i32 noundef %39)
  %41 = call noundef i64 @_ZNK22ZPhysicalMemorySegment5startEv(ptr noundef nonnull align 8 dereferenceable(17) %40)
  %42 = load i64, ptr %7, align 8
  call void @_ZN15ZPhysicalMemory15replace_segmentEi7zoffsetmb(ptr noundef nonnull align 8 dereferenceable(16) %8, i32 noundef %37, i64 noundef %41, i64 noundef %42, i1 noundef zeroext true)
  br label %43

43:                                               ; preds = %22, %19
  store i1 false, ptr %4, align 1
  br label %44

44:                                               ; preds = %43, %15
  %45 = load i1, ptr %4, align 1
  ret i1 %45
}